; Function Attrs: mustprogress nounwind uwtable
define hidden noundef ptr @_ZN11ConstMethod8allocateEP15ClassLoaderDataiP16InlineTableSizesNS_10MethodTypeEP10JavaThread(ptr noundef %0, i32 noundef %1, ptr nocapture noundef readonly %2, i32 noundef %3, ptr noundef %4) local_unnamed_addr #0 align 2 {
  %6 = getelementptr inbounds i8, ptr %2, i64 4
  %7 = load i32, ptr %6, align 4
  %8 = tail call i32 @llvm.smax.i32(i32 %7, i32 0)
  %spec.select33.i = add nsw i32 %8, %1
  %9 = getelementptr inbounds i8, ptr %2, i64 12
  %10 = load i32, ptr %9, align 4
  %11 = icmp sgt i32 %10, 0
  %12 = add i32 %spec.select33.i, 2
  %13 = shl nuw nsw i32 %10, 1
  %14 = add nsw i32 %12, %13
  %.1.i = select i1 %11, i32 %14, i32 %spec.select33.i
  %15 = load i32, ptr %2, align 4
  %16 = icmp sgt i32 %15, 0
  %17 = mul nsw i32 %15, 12
  %18 = or disjoint i32 %17, 2
  %19 = select i1 %16, i32 %18, i32 0
  %.2.i = add i32 %.1.i, %19
  %20 = getelementptr inbounds i8, ptr %2, i64 8
  %21 = load i32, ptr %20, align 4
  %22 = icmp sgt i32 %21, 0
  %23 = shl nsw i32 %21, 3
  %24 = or disjoint i32 %23, 2
  %25 = select i1 %22, i32 %24, i32 0
  %.3.i = add i32 %.2.i, %25
  %26 = getelementptr inbounds i8, ptr %2, i64 20
  %27 = load i32, ptr %26, align 4
  %.not.i = icmp eq i32 %27, 0
  %28 = add i32 %.3.i, 2
  %spec.select.i = select i1 %.not.i, i32 %.3.i, i32 %28
  %29 = getelementptr inbounds i8, ptr %2, i64 16
  %30 = load i32, ptr %29, align 4
  %31 = shl nsw i32 %30, 2
  %32 = icmp slt i32 %30, 0
  %33 = add i32 %31, 9
  %.5.i = select i1 %32, i32 7, i32 %33
  %34 = add i32 %.5.i, %spec.select.i
  %35 = and i32 %34, -8
  %36 = getelementptr inbounds i8, ptr %2, i64 24
  %37 = add nsw i32 %35, 8
  %38 = load <4 x i32>, ptr %36, align 4
  %39 = icmp sgt <4 x i32> %38, zeroinitializer
  %40 = extractelement <4 x i1> %39, i64 0
  %spec.select32.i = select i1 %40, i32 %37, i32 %35
  %41 = add nsw i32 %spec.select32.i, 8
  %42 = extractelement <4 x i1> %39, i64 1
  %.7.i = select i1 %42, i32 %41, i32 %spec.select32.i
  %43 = add nsw i32 %.7.i, 8
  %44 = extractelement <4 x i1> %39, i64 2
  %.8.i = select i1 %44, i32 %43, i32 %.7.i
  %45 = add nsw i32 %.8.i, 8
  %46 = extractelement <4 x i1> %39, i64 3
  %.9.i = select i1 %46, i32 %45, i32 %.8.i
  %47 = add i32 %.9.i, 7
  %48 = ashr i32 %47, 3
  %49 = add nsw i32 %48, 7
  %50 = sext i32 %49 to i64
  %51 = tail call noundef ptr @_ZN12MetaspaceObjnwEmP15ClassLoaderDatamNS_4TypeEP10JavaThread(i64 noundef 56, ptr noundef %0, i64 noundef %50, i32 noundef 8, ptr noundef %4) #14
  %52 = icmp eq ptr %51, null
  br i1 %52, label %64, label %53

53:                                               ; preds = %5
  %54 = getelementptr inbounds i8, ptr %51, i64 28
  store i32 0, ptr %54, align 4
  store volatile i64 -9223372036854775808, ptr %51, align 8
  %55 = getelementptr inbounds i8, ptr %51, i64 8
  %56 = trunc i32 %1 to i16
  %57 = getelementptr inbounds i8, ptr %51, i64 34
  tail call void @llvm.memset.p0.i64(ptr noundef nonnull align 8 dereferenceable(16) %55, i8 0, i64 16, i1 false)
  store i16 %56, ptr %57, align 2
  %58 = getelementptr inbounds i8, ptr %51, i64 24
  store i32 %49, ptr %58, align 8
  tail call void @_ZN11ConstMethod25set_inlined_tables_lengthEP16InlineTableSizes(ptr noundef nonnull align 8 dereferenceable(52) %51, ptr noundef nonnull readonly %2)
  %.not.i.i = icmp eq i32 %3, 0
  br i1 %.not.i.i, label %_ZN11ConstMethodC2EiP16InlineTableSizesNS_10MethodTypeEi.exit, label %59

59:                                               ; preds = %53
  %60 = load i32, ptr %54, align 4
  %61 = or i32 %60, 64
  store i32 %61, ptr %54, align 4
  br label %_ZN11ConstMethodC2EiP16InlineTableSizesNS_10MethodTypeEi.exit

_ZN11ConstMethodC2EiP16InlineTableSizesNS_10MethodTypeEi.exit: ; preds = %53, %59
  %62 = getelementptr inbounds i8, ptr %51, i64 36
  store ptr null, ptr %55, align 8
  %63 = getelementptr inbounds i8, ptr %51, i64 32
  store i8 0, ptr %63, align 8
  tail call void @llvm.memset.p0.i64(ptr noundef nonnull align 4 dereferenceable(12) %62, i8 0, i64 12, i1 false)
  br label %64

64:                                               ; preds = %_ZN11ConstMethodC2EiP16InlineTableSizesNS_10MethodTypeEi.exit, %5
  ret ptr %51
}